target datalayout = "e-m:e-p270:32:32-p271:32:32-p272:64:64-i64:64-i128:128-f80:128-n8:16:32:64-S128"
target triple = "x86_64-pc-linux-gnu"

%struct.sp_int = type { i16, i16, [129 x i64] }

; Function Attrs: nounwind uwtable
define i32 @sp_mont_red_ex(ptr noundef %0, ptr noundef %1, i64 noundef %2, i32 noundef %3) #0 {
  %5 = alloca ptr, align 8
  %6 = alloca ptr, align 8
  %7 = alloca i64, align 8
  %8 = alloca i32, align 4
  %9 = alloca i32, align 4
  store ptr %0, ptr %5, align 8, !tbaa !3
  store ptr %1, ptr %6, align 8, !tbaa !3
  store i64 %2, ptr %7, align 8, !tbaa !16
  store i32 %3, ptr %8, align 4, !tbaa !8
  call void @llvm.lifetime.start.p0(i64 4, ptr %9) #8
  %10 = load ptr, ptr %5, align 8, !tbaa !3
  %11 = icmp eq ptr %10, null
  br i1 %11, label %21, label %12

12:                                               ; preds = %4
  %13 = load ptr, ptr %6, align 8, !tbaa !3
  %14 = icmp eq ptr %13, null
  br i1 %14, label %21, label %15

15:                                               ; preds = %12
  %16 = load ptr, ptr %6, align 8, !tbaa !3
  %17 = getelementptr inbounds nuw %struct.sp_int, ptr %16, i32 0, i32 0
  %18 = load i16, ptr %17, align 8, !tbaa !15
  %19 = zext i16 %18 to i32
  %20 = icmp eq i32 %19, 0
  br i1 %20, label %21, label %22

21:                                               ; preds = %15, %12, %4
  store i32 -98, ptr %9, align 4, !tbaa !8
  br label %42

22:                                               ; preds = %15
  %23 = load ptr, ptr %5, align 8, !tbaa !3
  %24 = getelementptr inbounds nuw %struct.sp_int, ptr %23, i32 0, i32 1
  %25 = load i16, ptr %24, align 2, !tbaa !12
  %26 = zext i16 %25 to i32
  %27 = load ptr, ptr %6, align 8, !tbaa !3
  %28 = getelementptr inbounds nuw %struct.sp_int, ptr %27, i32 0, i32 0
  %29 = load i16, ptr %28, align 8, !tbaa !15
  %30 = zext i16 %29 to i32
  %31 = mul nsw i32 %30, 2
  %32 = add nsw i32 %31, 1
  %33 = icmp slt i32 %26, %32
  br i1 %33, label %34, label %35

34:                                               ; preds = %22
  store i32 -98, ptr %9, align 4, !tbaa !8
  br label %41

35:                                               ; preds = %22
  %36 = load ptr, ptr %5, align 8, !tbaa !3
  %37 = load ptr, ptr %6, align 8, !tbaa !3
  %38 = load i64, ptr %7, align 8, !tbaa !16
  %39 = load i32, ptr %8, align 4, !tbaa !8
  %40 = call i32 @_sp_mont_red(ptr noundef %36, ptr noundef %37, i64 noundef %38, i32 noundef %39)
  store i32 %40, ptr %9, align 4, !tbaa !8
  br label %41

41:                                               ; preds = %35, %34
  br label %42

42:                                               ; preds = %41, %21
  %43 = load i32, ptr %9, align 4, !tbaa !8
  call void @llvm.lifetime.end.p0(i64 4, ptr %9) #8
  ret i32 %43
}