; Function Attrs: nofree norecurse nosync nounwind memory(argmem: readwrite) uwtable
define range(i32 -98, 1) i32 @sp_mont_red_ex(ptr noundef %0, ptr noundef captures(address_is_null) %1, i64 noundef %2, i32 noundef %3) local_unnamed_addr #8 {
  %5 = icmp eq ptr %0, null
  %6 = icmp eq ptr %1, null
  %or.cond = or i1 %5, %6
  br i1 %or.cond, label %17, label %7

7:                                                ; preds = %4
  %8 = load i16, ptr %1, align 8, !tbaa !12
  %9 = icmp eq i16 %8, 0
  br i1 %9, label %17, label %10

10:                                               ; preds = %7
  %11 = zext i16 %8 to i32
  %12 = getelementptr inbounds nuw i8, ptr %0, i64 2
  %13 = load i16, ptr %12, align 2, !tbaa !10
  %14 = zext i16 %13 to i32
  %15 = shl nuw nsw i32 %11, 1
  %.not = icmp samesign ult i32 %15, %14
  br i1 %.not, label %16, label %17

16:                                               ; preds = %10
  tail call fastcc void @_sp_mont_red(ptr noundef nonnull %0, ptr noundef nonnull %1, i64 noundef %2, i32 noundef %3)
  br label %17

17:                                               ; preds = %10, %4, %7, %16
  %.0 = phi i32 [ 0, %16 ], [ -98, %7 ], [ -98, %4 ], [ -98, %10 ]
  ret i32 %.0
}